Certificate:
    Data:
        Version: 3 (0x2)
        Serial Number: 1 (0x1)
    Signature Algorithm: sha256WithRSAEncryption
        Issuer: CN=hss.OpenAir5G.Alliance, C=FR, ST=PACA, L=Aix, O=Eurecom, OU=CM
        Validity
            Not Before: Oct 29 14:11:45 2017 GMT
            Not After : Oct 29 14:11:45 2018 GMT
        Subject: C=FR, ST=PACA, O=Eurecom, OU=CM, CN=hss.OpenAir5G.Alliance
        Subject Public Key Info:
            Public Key Algorithm: rsaEncryption
                Public-Key: (1024 bit)
                Modulus:
                    00:c2:6e:61:b4:36:6b:ea:ad:76:bf:04:72:fc:59:
                    23:a0:dd:f7:26:4a:3c:e4:9d:b3:8f:25:23:b6:de:
                    9e:11:1e:d6:92:9d:27:07:26:ae:6e:e1:1c:e0:d8:
                    fa:86:9b:bc:be:b0:8f:11:d2:47:95:cc:40:2e:a6:
                    e2:09:11:af:cb:47:ac:f3:b1:3a:2b:d0:b7:6a:3f:
                    42:ce:cd:8b:48:70:24:b6:fe:bb:e1:11:6e:45:b5:
                    e9:2e:97:01:f3:11:19:16:4a:cb:82:b7:bd:97:02:
                    99:0c:45:ae:9a:6b:04:9a:33:a4:5c:c8:37:81:9d:
                    38:2f:13:88:d4:4d:4c:84:f1
                Exponent: 65537 (0x10001)
        X509v3 extensions:
            X509v3 Basic Constraints: 
                CA:FALSE
            Netscape Comment: 
                OpenSSL Generated Certificate
            X509v3 Subject Key Identifier: 
                1E:61:C9:85:D4:17:9E:A9:EE:85:4B:5C:5D:A0:CC:2A:23:38:C3:71
            X509v3 Authority Key Identifier: 
                keyid:6A:B3:76:D7:45:7A:09:87:B8:DD:04:0F:6D:E1:92:39:08:4B:EF:54

    Signature Algorithm: sha256WithRSAEncryption
         9c:de:8b:74:0a:1b:ed:34:64:a0:90:66:65:31:d1:4c:0c:6c:
         f3:a2:7a:35:ab:98:1e:87:76:45:05:a6:f2:f6:1e:a3:5d:3b:
         e0:15:bd:a2:cb:5a:98:72:ad:37:68:4f:14:7c:36:15:ea:c5:
         02:9a:38:d6:36:9f:35:58:18:5a:cd:bb:c0:da:c5:67:d9:c1:
         6d:0d:57:73:14:2f:75:ab:a2:8e:56:fb:77:98:52:6e:ae:6a:
         9d:fa:d9:8f:76:b6:7e:68:44:0b:97:82:ac:54:48:0a:aa:22:
         73:4e:4d:c2:42:30:32:2d:4f:12:37:c3:35:51:91:0c:77:f6:
         73:b9
-----BEGIN CERTIFICATE-----
MIICtzCCAiCgAwIBAgIBATANBgkqhkiG9w0BAQsFADBqMR8wHQYDVQQDDBZoc3Mu
T3BlbkFpcjVHLkFsbGlhbmNlMQswCQYDVQQGEwJGUjENMAsGA1UECAwEUEFDQTEM
MAoGA1UEBwwDQWl4MRAwDgYDVQQKDAdFdXJlY29tMQswCQYDVQQLDAJDTTAeFw0x
NzEwMjkxNDExNDVaFw0xODEwMjkxNDExNDVaMFwxCzAJBgNVBAYTAkZSMQ0wCwYD
VQQIDARQQUNBMRAwDgYDVQQKDAdFdXJlY29tMQswCQYDVQQLDAJDTTEfMB0GA1UE
AwwWaHNzLk9wZW5BaXI1Ry5BbGxpYW5jZTCBnzANBgkqhkiG9w0BAQEFAAOBjQAw
gYkCgYEAwm5htDZr6q12vwRy/FkjoN33Jko85J2zjyUjtt6eER7Wkp0nByaubuEc
4Nj6hpu8vrCPEdJHlcxALqbiCRGvy0es87E6K9C3aj9Czs2LSHAktv674RFuRbXp
LpcB8xEZFkrLgre9lwKZDEWummsEmjOkXMg3gZ04LxOI1E1MhPECAwEAAaN7MHkw
CQYDVR0TBAIwADAsBglghkgBhvhCAQ0EHxYdT3BlblNTTCBHZW5lcmF0ZWQgQ2Vy
dGlmaWNhdGUwHQYDVR0OBBYEFB5hyYXUF56p7oVLXF2gzCojOMNxMB8GA1UdIwQY
MBaAFGqzdtdFegmHuN0ED23hkjkIS+9UMA0GCSqGSIb3DQEBCwUAA4GBAJzei3QK
G+00ZKCQZmUx0UwMbPOiejWrmB6HdkUFpvL2HqNdO+AVvaLLWphyrTdoTxR8NhXq
xQKaONY2nzVYGFrNu8DaxWfZwW0NV3MUL3Wroo5W+3eYUm6uap362Y92tn5oRAuX
gqxUSAqqInNOTcJCMDItTxI3wzVRkQx39nO5
-----END CERTIFICATE-----
