Certificate:
    Data:
        Version: 3 (0x2)
        Serial Number: 1 (0x1)
    Signature Algorithm: sha256WithRSAEncryption
        Issuer: CN=mme.OpenAir5G.Alliance, C=FR, ST=PACA, L=Aix, O=Eurecom, OU=CM
        Validity
            Not Before: Oct 29 14:11:50 2017 GMT
            Not After : Oct 29 14:11:50 2018 GMT
        Subject: C=FR, ST=PACA, O=Eurecom, OU=CM, CN=mme.OpenAir5G.Alliance
        Subject Public Key Info:
            Public Key Algorithm: rsaEncryption
                Public-Key: (1024 bit)
                Modulus:
                    00:b9:1b:4e:09:3f:39:34:cb:84:76:8e:ac:9b:c0:
                    c8:cd:0a:39:cd:2d:e2:6e:66:bd:e6:ff:32:c3:d6:
                    44:f6:de:7b:f5:ff:ee:90:a0:28:38:53:de:49:db:
                    19:5b:35:8f:9a:ab:d6:e8:bc:be:09:92:ec:d7:3c:
                    0f:60:0f:d8:6e:5c:1c:bc:8b:0c:bb:18:c8:05:d2:
                    48:ea:b7:c4:d1:d5:7b:8a:83:3a:5d:15:db:07:01:
                    61:a7:1a:d6:ec:83:e1:d3:df:d5:93:c0:fd:84:5a:
                    49:36:dc:3d:2c:df:9e:04:3e:3d:e1:c4:74:85:14:
                    cf:56:89:4c:a9:75:33:f4:f3
                Exponent: 65537 (0x10001)
        X509v3 extensions:
            X509v3 Basic Constraints: 
                CA:FALSE
            Netscape Comment: 
                OpenSSL Generated Certificate
            X509v3 Subject Key Identifier: 
                E2:59:0F:96:D9:8B:0E:EC:02:4B:20:12:C4:88:0A:37:2D:65:C9:E9
            X509v3 Authority Key Identifier: 
                keyid:9A:ED:CE:72:E7:A2:78:A5:42:9F:96:9C:CF:9F:22:4A:69:A4:03:85

    Signature Algorithm: sha256WithRSAEncryption
         3e:e0:aa:3b:cd:e1:65:a7:35:87:4c:66:7a:a3:19:37:14:20:
         f9:9c:d6:02:c5:76:e7:7f:ae:a5:a3:33:07:e1:98:50:ee:1c:
         22:30:78:1c:5b:e1:f2:40:d3:74:9c:6f:4f:7d:0e:1b:f1:02:
         34:70:c0:bd:6a:32:22:75:e5:bd:2b:86:bc:03:2c:2a:8c:c3:
         94:dd:1c:dc:93:b6:8c:7c:73:2b:05:6a:07:4f:09:3b:b9:63:
         b1:e0:02:70:a4:06:94:d1:15:c0:b9:79:30:d3:be:44:96:45:
         e4:72:5a:6f:48:d2:b3:84:be:1c:e1:e0:4c:45:f7:c8:41:d9:
         b5:d7
-----BEGIN CERTIFICATE-----
MIICtzCCAiCgAwIBAgIBATANBgkqhkiG9w0BAQsFADBqMR8wHQYDVQQDDBZtbWUu
T3BlbkFpcjVHLkFsbGlhbmNlMQswCQYDVQQGEwJGUjENMAsGA1UECAwEUEFDQTEM
MAoGA1UEBwwDQWl4MRAwDgYDVQQKDAdFdXJlY29tMQswCQYDVQQLDAJDTTAeFw0x
NzEwMjkxNDExNTBaFw0xODEwMjkxNDExNTBaMFwxCzAJBgNVBAYTAkZSMQ0wCwYD
VQQIDARQQUNBMRAwDgYDVQQKDAdFdXJlY29tMQswCQYDVQQLDAJDTTEfMB0GA1UE
AwwWbW1lLk9wZW5BaXI1Ry5BbGxpYW5jZTCBnzANBgkqhkiG9w0BAQEFAAOBjQAw
gYkCgYEAuRtOCT85NMuEdo6sm8DIzQo5zS3ibma95v8yw9ZE9t579f/ukKAoOFPe
SdsZWzWPmqvW6Ly+CZLs1zwPYA/YblwcvIsMuxjIBdJI6rfE0dV7ioM6XRXbBwFh
pxrW7IPh09/Vk8D9hFpJNtw9LN+eBD494cR0hRTPVolMqXUz9PMCAwEAAaN7MHkw
CQYDVR0TBAIwADAsBglghkgBhvhCAQ0EHxYdT3BlblNTTCBHZW5lcmF0ZWQgQ2Vy
dGlmaWNhdGUwHQYDVR0OBBYEFOJZD5bZiw7sAksgEsSICjctZcnpMB8GA1UdIwQY
MBaAFJrtznLnonilQp+WnM+fIkpppAOFMA0GCSqGSIb3DQEBCwUAA4GBAD7gqjvN
4WWnNYdMZnqjGTcUIPmc1gLFdud/rqWjMwfhmFDuHCIweBxb4fJA03Scb099Dhvx
AjRwwL1qMiJ15b0rhrwDLCqMw5TdHNyTtox8cysFagdPCTu5Y7HgAnCkBpTRFcC5
eTDTvkSWReRyWm9I0rOEvhzh4ExF98hB2bXX
-----END CERTIFICATE-----
